ccopy_reg
_reconstructor
p0
(cgoogle.oauth2.credentials
Credentials
p1
c__builtin__
object
p2
Ntp3
Rp4
(dp5
S'_token_uri'
p6
Vhttps://oauth2.googleapis.com/token
p7
sS'_scopes'
p8
(lp9
S'https://www.googleapis.com/auth/drive'
p10
asS'_id_token'
p11
NsS'token'
p12
Vya29.GlxBBz1LpEgqGFkedo6hSoXKlROV5RlrulX1Nc00wMxB5FAQ3FpwWGkQ21u6LU4dnIWaNMXY2qsiDG0L8Xd_QJasIEs7AbhQuvcB-4JHSkTHUSP1i3G6Cbs49lZi-w
p13
sS'_refresh_token'
p14
V1/eLMlxxkSid2IZBEMMRkkigvVML8EKtISMDWGhKA5mmE
p15
sS'_client_secret'
p16
VwnHriZF8ppvARUs0X4TnSnRz
p17
sS'_client_id'
p18
V636968987735-7l7u63lpeo8q0t5u79pg2h5k6e1m8ms8.apps.googleusercontent.com
p19
sS'expiry'
p20
cdatetime
datetime
p21
(S'\x07\xe3\x07\n\x07.\x07\x0b\xc5\t'
p22
tp23
Rp24
sb.